CCS PCM C Compiler, Version 4.032, 62930               27-may.-14 21:50

               Filename: C:\Users\EmilioReos\Desktop\Plantitas\main.lst

               ROM used: 111 words (1%)
                         Largest free fragment is 2048
               RAM used: 9 (2%) at main() level
                         9 (2%) worst case
               Stack:    0 locations

*
0000:  MOVLW  00
0001:  MOVWF  0A
0002:  GOTO   004
0003:  NOP
.................... #include <16F877A.h> 
.................... //////// Standard Header file for the PIC16F877A device //////////////// 
.................... #device PIC16F877A 
.................... #list 
....................  
.................... #device adc=10 
....................  
.................... #FUSES XT                        
.................... #byte PORTB=0x06 
.................... #byte PORTC=0x07 
.................... #use delay(clock=4000000) 
....................  
.................... int16 x=0; 
*
000F:  BCF    03.5
0010:  CLRF   20
0011:  CLRF   21
....................  
.................... void main() 
.................... { 
*
0004:  CLRF   04
0005:  BCF    03.7
0006:  MOVLW  1F
0007:  ANDWF  03,F
0008:  BSF    03.5
0009:  BSF    1F.0
000A:  BSF    1F.1
000B:  BSF    1F.2
000C:  BCF    1F.3
000D:  MOVLW  07
000E:  MOVWF  1C
....................  
....................    setup_adc_ports(AN0); 
*
0014:  BSF    03.5
0015:  BCF    1F.0
0016:  BSF    1F.1
0017:  BSF    1F.2
0018:  BSF    1F.3
....................    setup_adc(ADC_CLOCK_INTERNAL); 
0019:  BCF    1F.6
001A:  BCF    03.5
001B:  BSF    1F.6
001C:  BSF    1F.7
001D:  BSF    03.5
001E:  BSF    1F.7
001F:  BCF    03.5
0020:  BSF    1F.0
....................    setup_psp(PSP_DISABLED); 
0021:  BSF    03.5
0022:  BCF    09.4
....................    setup_spi(SPI_SS_DISABLED); 
*
0012:  MOVLW  FF
0013:  MOVWF  22
*
0023:  BCF    03.5
0024:  BCF    14.5
0025:  BCF    22.5
0026:  MOVF   22,W
0027:  BSF    03.5
0028:  MOVWF  07
0029:  BCF    03.5
002A:  BSF    22.4
002B:  MOVF   22,W
002C:  BSF    03.5
002D:  MOVWF  07
002E:  BCF    03.5
002F:  BCF    22.3
0030:  MOVF   22,W
0031:  BSF    03.5
0032:  MOVWF  07
0033:  MOVLW  01
0034:  BCF    03.5
0035:  MOVWF  14
0036:  MOVLW  00
0037:  BSF    03.5
0038:  MOVWF  14
....................    setup_timer_0(RTCC_INTERNAL|RTCC_DIV_1); 
0039:  MOVF   01,W
003A:  ANDLW  C7
003B:  IORLW  08
003C:  MOVWF  01
....................    setup_timer_1(T1_DISABLED); 
003D:  BCF    03.5
003E:  CLRF   10
....................    setup_timer_2(T2_DISABLED,0,1); 
003F:  MOVLW  00
0040:  MOVWF  78
0041:  MOVWF  12
0042:  MOVLW  00
0043:  BSF    03.5
0044:  MOVWF  12
....................    setup_comparator(NC_NC_NC_NC); 
0045:  MOVLW  07
0046:  MOVWF  1C
0047:  MOVF   05,W
0048:  MOVLW  03
0049:  MOVWF  77
004A:  DECFSZ 77,F
004B:  GOTO   04A
004C:  MOVF   1C,W
004D:  BCF    03.5
004E:  BCF    0D.6
....................    setup_vref(FALSE); 
004F:  BSF    03.5
0050:  CLRF   1D
....................    set_tris_b(0); 
0051:  MOVLW  00
0052:  MOVWF  06
....................    set_tris_c(0xff); 
0053:  MOVLW  FF
0054:  MOVWF  07
0055:  BCF    03.5
0056:  MOVWF  22
....................  
....................    while(true){ 
....................    
....................    
....................    x=read_adc(); 
0057:  BSF    1F.2
0058:  BTFSC  1F.2
0059:  GOTO   058
005A:  BSF    03.5
005B:  MOVF   1E,W
005C:  BCF    03.5
005D:  MOVWF  20
005E:  MOVF   1E,W
005F:  MOVWF  21
....................    PORTB=x; 
0060:  MOVF   20,W
0061:  MOVWF  06
....................     
....................    if(x<PORTC){ 
0062:  MOVF   21,F
0063:  BTFSS  03.2
0064:  GOTO   06C
0065:  MOVF   07,W
0066:  SUBWF  20,W
0067:  BTFSC  03.0
0068:  GOTO   06C
....................    PORTB=0xff; 
0069:  MOVLW  FF
006A:  MOVWF  06
....................    }else{ 
006B:  GOTO   06D
....................    PORTB=0; 
006C:  CLRF   06
....................    } 
....................     
....................     
....................    } 
006D:  GOTO   057
....................  
.................... } 
006E:  SLEEP

Configuration Fuses:
   Word  1: 3F71   XT NOWDT PUT NODEBUG NOPROTECT BROWNOUT NOLVP NOCPD NOWRT
